target datalayout = "e-m:e-p270:32:32-p271:32:32-p272:64:64-i64:64-i128:128-f80:128-n8:16:32:64-S128"
target triple = "x86_64-pc-linux-gnu"

%struct.Lf_Man_t_ = type { ptr, ptr, i32, i32, ptr, %struct.Vec_Ptr_t_, %struct.Vec_Int_t_, ptr, %struct.Vec_Ptr_t_, %struct.Lf_Mem_t_, %struct.Lf_Mem_t_, %struct.Vec_Int_t_, %struct.Vec_Int_t_, %struct.Vec_Int_t_, %struct.Vec_Flt_t_, %struct.Vec_Int_t_, %struct.Vec_Flt_t_, %struct.Vec_Int_t_, i64, [4 x double], double, i32, i32, i32, i32, i32, i32, i32, i32, [14 x i32] }
%struct.Vec_Ptr_t_ = type { i32, i32, ptr }
%struct.Lf_Mem_t_ = type { i32, i32, i32, i32, %struct.Vec_Ptr_t_, ptr }
%struct.Vec_Flt_t_ = type { i32, i32, ptr }
%struct.Vec_Int_t_ = type { i32, i32, ptr }
%struct.Jf_Par_t_ = type { i32, i32, i32, i32, i32, i32, i32, i32, i32, i32, i32, i32, i32, i32, i32, i32, i32, i32, i32, i32, i32, i32, i32, i32, i32, i32, i32, i32, i32, i32, i32, i32, i32, i32, i32, i32, i32, i32, i32, i32, i64, i64, i64, i64, i64, i64, i64, i64, i32, float, float, float, float, ptr, ptr }

@stdout = external global ptr, align 8
@.str.12 = private unnamed_addr constant [15 x i8] c"LutSize = %d  \00", align 1
@.str.13 = private unnamed_addr constant [14 x i8] c"CutNum = %d  \00", align 1
@.str.14 = private unnamed_addr constant [12 x i8] c"Iter = %d  \00", align 1
@.str.15 = private unnamed_addr constant [13 x i8] c"Ratio = %d  \00", align 1
@.str.16 = private unnamed_addr constant [12 x i8] c"Edge = %d  \00", align 1
@.str.17 = private unnamed_addr constant [13 x i8] c"Delay = %d  \00", align 1
@.str.18 = private unnamed_addr constant [14 x i8] c"CutMin = %d  \00", align 1
@.str.19 = private unnamed_addr constant [14 x i8] c"Coarse = %d  \00", align 1
@.str.20 = private unnamed_addr constant [22 x i8] c"Cut/Set = %d/%d Bytes\00", align 1
@.str.21 = private unnamed_addr constant [2 x i8] c"\0A\00", align 1
@.str.22 = private unnamed_addr constant [19 x i8] c"Computing cuts...\0D\00", align 1

; Function Attrs: nounwind uwtable
define void @Lf_ManPrintInit(ptr noundef %0) #0 {
  %2 = alloca ptr, align 8
  store ptr %0, ptr %2, align 8, !tbaa !3
  %3 = load ptr, ptr %2, align 8, !tbaa !3
  %4 = getelementptr inbounds nuw %struct.Lf_Man_t_, ptr %3, i32 0, i32 1
  %5 = load ptr, ptr %4, align 8, !tbaa !69
  %6 = getelementptr inbounds nuw %struct.Jf_Par_t_, ptr %5, i32 0, i32 34
  %7 = load i32, ptr %6, align 8, !tbaa !238
  %8 = icmp ne i32 %7, 0
  br i1 %8, label %10, label %9

9:                                                ; preds = %1
  br label %94

10:                                               ; preds = %1
  %11 = load ptr, ptr %2, align 8, !tbaa !3
  %12 = getelementptr inbounds nuw %struct.Lf_Man_t_, ptr %11, i32 0, i32 1
  %13 = load ptr, ptr %12, align 8, !tbaa !69
  %14 = getelementptr inbounds nuw %struct.Jf_Par_t_, ptr %13, i32 0, i32 0
  %15 = load i32, ptr %14, align 8, !tbaa !75
  %16 = call i32 (ptr, ...) @printf(ptr noundef @.str.12, i32 noundef %15)
  %17 = load ptr, ptr %2, align 8, !tbaa !3
  %18 = getelementptr inbounds nuw %struct.Lf_Man_t_, ptr %17, i32 0, i32 1
  %19 = load ptr, ptr %18, align 8, !tbaa !69
  %20 = getelementptr inbounds nuw %struct.Jf_Par_t_, ptr %19, i32 0, i32 1
  %21 = load i32, ptr %20, align 4, !tbaa !80
  %22 = call i32 (ptr, ...) @printf(ptr noundef @.str.13, i32 noundef %21)
  %23 = load ptr, ptr %2, align 8, !tbaa !3
  %24 = getelementptr inbounds nuw %struct.Lf_Man_t_, ptr %23, i32 0, i32 1
  %25 = load ptr, ptr %24, align 8, !tbaa !69
  %26 = getelementptr inbounds nuw %struct.Jf_Par_t_, ptr %25, i32 0, i32 3
  %27 = load i32, ptr %26, align 4, !tbaa !227
  %28 = load ptr, ptr %2, align 8, !tbaa !3
  %29 = getelementptr inbounds nuw %struct.Lf_Man_t_, ptr %28, i32 0, i32 1
  %30 = load ptr, ptr %29, align 8, !tbaa !69
  %31 = getelementptr inbounds nuw %struct.Jf_Par_t_, ptr %30, i32 0, i32 4
  %32 = load i32, ptr %31, align 8, !tbaa !228
  %33 = add nsw i32 %27, %32
  %34 = call i32 (ptr, ...) @printf(ptr noundef @.str.14, i32 noundef %33)
  %35 = load ptr, ptr %2, align 8, !tbaa !3
  %36 = getelementptr inbounds nuw %struct.Lf_Man_t_, ptr %35, i32 0, i32 1
  %37 = load ptr, ptr %36, align 8, !tbaa !69
  %38 = getelementptr inbounds nuw %struct.Jf_Par_t_, ptr %37, i32 0, i32 5
  %39 = load i32, ptr %38, align 4, !tbaa !147
  %40 = icmp ne i32 %39, 0
  br i1 %40, label %41, label %48

41:                                               ; preds = %10
  %42 = load ptr, ptr %2, align 8, !tbaa !3
  %43 = getelementptr inbounds nuw %struct.Lf_Man_t_, ptr %42, i32 0, i32 1
  %44 = load ptr, ptr %43, align 8, !tbaa !69
  %45 = getelementptr inbounds nuw %struct.Jf_Par_t_, ptr %44, i32 0, i32 5
  %46 = load i32, ptr %45, align 4, !tbaa !147
  %47 = call i32 (ptr, ...) @printf(ptr noundef @.str.15, i32 noundef %46)
  br label %48

48:                                               ; preds = %41, %10
  %49 = load ptr, ptr %2, align 8, !tbaa !3
  %50 = getelementptr inbounds nuw %struct.Lf_Man_t_, ptr %49, i32 0, i32 1
  %51 = load ptr, ptr %50, align 8, !tbaa !69
  %52 = getelementptr inbounds nuw %struct.Jf_Par_t_, ptr %51, i32 0, i32 18
  %53 = load i32, ptr %52, align 8, !tbaa !72
  %54 = call i32 (ptr, ...) @printf(ptr noundef @.str.16, i32 noundef %53)
  %55 = load ptr, ptr %2, align 8, !tbaa !3
  %56 = getelementptr inbounds nuw %struct.Lf_Man_t_, ptr %55, i32 0, i32 1
  %57 = load ptr, ptr %56, align 8, !tbaa !69
  %58 = getelementptr inbounds nuw %struct.Jf_Par_t_, ptr %57, i32 0, i32 13
  %59 = load i32, ptr %58, align 4, !tbaa !146
  %60 = icmp ne i32 %59, -1
  br i1 %60, label %61, label %68

61:                                               ; preds = %48
  %62 = load ptr, ptr %2, align 8, !tbaa !3
  %63 = getelementptr inbounds nuw %struct.Lf_Man_t_, ptr %62, i32 0, i32 1
  %64 = load ptr, ptr %63, align 8, !tbaa !69
  %65 = getelementptr inbounds nuw %struct.Jf_Par_t_, ptr %64, i32 0, i32 13
  %66 = load i32, ptr %65, align 4, !tbaa !146
  %67 = call i32 (ptr, ...) @printf(ptr noundef @.str.17, i32 noundef %66)
  br label %68

68:                                               ; preds = %61, %48
  %69 = load ptr, ptr %2, align 8, !tbaa !3
  %70 = getelementptr inbounds nuw %struct.Lf_Man_t_, ptr %69, i32 0, i32 1
  %71 = load ptr, ptr %70, align 8, !tbaa !69
  %72 = getelementptr inbounds nuw %struct.Jf_Par_t_, ptr %71, i32 0, i32 22
  %73 = load i32, ptr %72, align 8, !tbaa !84
  %74 = call i32 (ptr, ...) @printf(ptr noundef @.str.18, i32 noundef %73)
  %75 = load ptr, ptr %2, align 8, !tbaa !3
  %76 = getelementptr inbounds nuw %struct.Lf_Man_t_, ptr %75, i32 0, i32 1
  %77 = load ptr, ptr %76, align 8, !tbaa !69
  %78 = getelementptr inbounds nuw %struct.Jf_Par_t_, ptr %77, i32 0, i32 21
  %79 = load i32, ptr %78, align 4, !tbaa !232
  %80 = call i32 (ptr, ...) @printf(ptr noundef @.str.19, i32 noundef %79)
  %81 = load ptr, ptr %2, align 8, !tbaa !3
  %82 = getelementptr inbounds nuw %struct.Lf_Man_t_, ptr %81, i32 0, i32 2
  %83 = load i32, ptr %82, align 8, !tbaa !81
  %84 = mul nsw i32 8, %83
  %85 = load ptr, ptr %2, align 8, !tbaa !3
  %86 = getelementptr inbounds nuw %struct.Lf_Man_t_, ptr %85, i32 0, i32 3
  %87 = load i32, ptr %86, align 4, !tbaa !127
  %88 = mul nsw i32 8, %87
  %89 = call i32 (ptr, ...) @printf(ptr noundef @.str.20, i32 noundef %84, i32 noundef %88)
  %90 = call i32 (ptr, ...) @printf(ptr noundef @.str.21)
  %91 = call i32 (ptr, ...) @printf(ptr noundef @.str.22)
  %92 = load ptr, ptr @stdout, align 8, !tbaa !158
  %93 = call i32 @fflush(ptr noundef %92)
  br label %94

94:                                               ; preds = %68, %9
  ret void
}