; Function Attrs: nofree nounwind uwtable
define void @Lf_ManPrintInit(ptr noundef readonly captures(none) %0) local_unnamed_addr #2 {
  %2 = getelementptr inbounds nuw i8, ptr %0, i64 8
  %3 = load ptr, ptr %2, align 8, !tbaa !55
  %4 = getelementptr inbounds nuw i8, ptr %3, i64 136
  %5 = load i32, ptr %4, align 8, !tbaa !263
  %.not = icmp eq i32 %5, 0
  br i1 %.not, label %54, label %6

6:                                                ; preds = %1
  %7 = load i32, ptr %3, align 8, !tbaa !64
  %8 = tail call i32 (ptr, ...) @printf(ptr noundef nonnull dereferenceable(1) @.str.12, i32 noundef %7)
  %9 = load ptr, ptr %2, align 8, !tbaa !55
  %10 = getelementptr inbounds nuw i8, ptr %9, i64 4
  %11 = load i32, ptr %10, align 4, !tbaa !81
  %12 = tail call i32 (ptr, ...) @printf(ptr noundef nonnull dereferenceable(1) @.str.13, i32 noundef %11)
  %13 = load ptr, ptr %2, align 8, !tbaa !55
  %14 = getelementptr inbounds nuw i8, ptr %13, i64 12
  %15 = load i32, ptr %14, align 4, !tbaa !252
  %16 = getelementptr inbounds nuw i8, ptr %13, i64 16
  %17 = load i32, ptr %16, align 8, !tbaa !253
  %18 = add nsw i32 %17, %15
  %19 = tail call i32 (ptr, ...) @printf(ptr noundef nonnull dereferenceable(1) @.str.14, i32 noundef %18)
  %20 = load ptr, ptr %2, align 8, !tbaa !55
  %21 = getelementptr inbounds nuw i8, ptr %20, i64 20
  %22 = load i32, ptr %21, align 4, !tbaa !172
  %.not15 = icmp eq i32 %22, 0
  br i1 %.not15, label %25, label %23

23:                                               ; preds = %6
  %24 = tail call i32 (ptr, ...) @printf(ptr noundef nonnull dereferenceable(1) @.str.15, i32 noundef %22)
  %.pre = load ptr, ptr %2, align 8, !tbaa !55
  br label %25

25:                                               ; preds = %23, %6
  %26 = phi ptr [ %.pre, %23 ], [ %20, %6 ]
  %27 = getelementptr inbounds nuw i8, ptr %26, i64 72
  %28 = load i32, ptr %27, align 8, !tbaa !61
  %29 = tail call i32 (ptr, ...) @printf(ptr noundef nonnull dereferenceable(1) @.str.16, i32 noundef %28)
  %30 = load ptr, ptr %2, align 8, !tbaa !55
  %31 = getelementptr inbounds nuw i8, ptr %30, i64 52
  %32 = load i32, ptr %31, align 4, !tbaa !171
  %.not16 = icmp eq i32 %32, -1
  br i1 %.not16, label %35, label %33

33:                                               ; preds = %25
  %34 = tail call i32 (ptr, ...) @printf(ptr noundef nonnull dereferenceable(1) @.str.17, i32 noundef %32)
  %.pre17 = load ptr, ptr %2, align 8, !tbaa !55
  br label %35

35:                                               ; preds = %33, %25
  %36 = phi ptr [ %.pre17, %33 ], [ %30, %25 ]
  %37 = getelementptr inbounds nuw i8, ptr %36, i64 88
  %38 = load i32, ptr %37, align 8, !tbaa !70
  %39 = tail call i32 (ptr, ...) @printf(ptr noundef nonnull dereferenceable(1) @.str.18, i32 noundef %38)
  %40 = load ptr, ptr %2, align 8, !tbaa !55
  %41 = getelementptr inbounds nuw i8, ptr %40, i64 84
  %42 = load i32, ptr %41, align 4, !tbaa !256
  %43 = tail call i32 (ptr, ...) @printf(ptr noundef nonnull dereferenceable(1) @.str.19, i32 noundef %42)
  %44 = getelementptr inbounds nuw i8, ptr %0, i64 16
  %45 = load i32, ptr %44, align 8, !tbaa !82
  %46 = shl nsw i32 %45, 3
  %47 = getelementptr inbounds nuw i8, ptr %0, i64 20
  %48 = load i32, ptr %47, align 4, !tbaa !155
  %49 = shl nsw i32 %48, 3
  %50 = tail call i32 (ptr, ...) @printf(ptr noundef nonnull dereferenceable(1) @.str.20, i32 noundef %46, i32 noundef %49)
  %putchar = tail call i32 @putchar(i32 10)
  %51 = tail call i32 (ptr, ...) @printf(ptr noundef nonnull dereferenceable(1) @.str.22)
  %52 = load ptr, ptr @stdout, align 8, !tbaa !185
  %53 = tail call i32 @fflush(ptr noundef %52)
  br label %54

54:                                               ; preds = %1, %35
  ret void
}